target datalayout = "e-m:e-p270:32:32-p271:32:32-p272:64:64-i64:64-i128:128-f80:128-n8:16:32:64-S128"
target triple = "x86_64-pc-linux-gnu"

%union.pthread_mutex_t = type { %struct.__pthread_mutex_s }
%struct.__pthread_mutex_s = type { i32, i32, i32, i32, i32, i16, i16, %struct.__pthread_internal_list }
%struct.__pthread_internal_list = type { ptr, ptr }
%struct.___itt_global = type { [8 x i8], i64, i64, i64, i64, i64, i64, %union.pthread_mutex_t, ptr, ptr, ptr, ptr, ptr, ptr, ptr, ptr, i32, ptr, i32, ptr, ptr }

@__itt_api_version_ptr__3_0 = hidden global ptr @__itt_api_version_init_3_0, align 8
@__itt_init_ittlib_ptr = internal global ptr @__itt_init_ittlib, align 8

; Function Attrs: nounwind uwtable
define internal ptr @__itt_api_version_init_3_0() #0 {
  %1 = alloca ptr, align 8
  %2 = load volatile i64, ptr getelementptr inbounds nuw (%struct.___itt_global, ptr @__itt__ittapi_global, i32 0, i32 4), align 8, !tbaa !3
  %3 = icmp ne i64 %2, 0
  br i1 %3, label %10, label %4

4:                                                ; preds = %0
  %5 = load ptr, ptr getelementptr inbounds nuw (%struct.___itt_global, ptr @__itt__ittapi_global, i32 0, i32 13), align 8, !tbaa !20
  %6 = icmp eq ptr %5, null
  br i1 %6, label %7, label %10

7:                                                ; preds = %4
  %8 = load ptr, ptr @__itt_init_ittlib_ptr, align 8, !tbaa !21
  %9 = call i32 %8(ptr noundef null, i32 noundef -1)
  br label %10

10:                                               ; preds = %7, %4, %0
  %11 = load ptr, ptr @__itt_api_version_ptr__3_0, align 8, !tbaa !21
  %12 = icmp ne ptr %11, null
  br i1 %12, label %13, label %19

13:                                               ; preds = %10
  %14 = load ptr, ptr @__itt_api_version_ptr__3_0, align 8, !tbaa !21
  %15 = icmp ne ptr %14, @__itt_api_version_init_3_0
  br i1 %15, label %16, label %19

16:                                               ; preds = %13
  %17 = load ptr, ptr @__itt_api_version_ptr__3_0, align 8, !tbaa !21
  %18 = call ptr %17()
  store ptr %18, ptr %1, align 8
  br label %20

19:                                               ; preds = %13, %10
  store ptr null, ptr %1, align 8
  br label %20

20:                                               ; preds = %19, %16
  %21 = load ptr, ptr %1, align 8
  ret ptr %21
}