; Function Attrs: nounwind uwtable
define internal ptr @__itt_api_version_init_3_0() #0 {
  %1 = load volatile i64, ptr getelementptr inbounds nuw (i8, ptr @__itt__ittapi_global, i64 32), align 8, !tbaa !3
  %2 = icmp eq i64 %1, 0
  %3 = load ptr, ptr getelementptr inbounds nuw (i8, ptr @__itt__ittapi_global, i64 136), align 8
  %4 = icmp eq ptr %3, null
  %or.cond = select i1 %2, i1 %4, i1 false
  br i1 %or.cond, label %5, label %7

5:                                                ; preds = %0
  %6 = tail call i32 @__itt_init_ittlib(ptr noundef null, i32 noundef -1)
  br label %7

7:                                                ; preds = %5, %0
  %8 = load ptr, ptr @__itt_api_version_ptr__3_0, align 8, !tbaa !20
  %9 = icmp ne ptr %8, null
  %10 = icmp ne ptr %8, @__itt_api_version_init_3_0
  %or.cond3 = and i1 %9, %10
  br i1 %or.cond3, label %11, label %13

11:                                               ; preds = %7
  %12 = tail call ptr %8() #14
  br label %13

13:                                               ; preds = %7, %11
  %.0 = phi ptr [ %12, %11 ], [ null, %7 ]
  ret ptr %.0
}